target datalayout = "e-m:e-p270:32:32-p271:32:32-p272:64:64-i64:64-i128:128-f80:128-n8:16:32:64-S128"
target triple = "x86_64-unknown-linux-gnu"

%class.btSoftBodyRigidBodyCollisionConfiguration = type { %class.btDefaultCollisionConfiguration, ptr, ptr, ptr, ptr, ptr }
%class.btDefaultCollisionConfiguration = type { %class.btCollisionConfiguration, i32, ptr, i8, ptr, i8, ptr, ptr, ptr, ptr, ptr, ptr, ptr, ptr, ptr, ptr, ptr, ptr, ptr, ptr, ptr, ptr }
%class.btCollisionConfiguration = type { ptr }

; Function Attrs: mustprogress nounwind uwtable
define linkonce_odr dso_local noundef zeroext i1 @_ZN17btBroadphaseProxy9isConcaveEi(i32 noundef %proxyType) #1 comdat align 2 {
entry:
  %proxyType.addr = alloca i32, align 4
  store i32 %proxyType, ptr %proxyType.addr, align 4
  %0 = load i32, ptr %proxyType.addr, align 4
  %cmp = icmp sgt i32 %0, 20
  br i1 %cmp, label %land.rhs, label %land.end

land.rhs:                                         ; preds = %entry
  %1 = load i32, ptr %proxyType.addr, align 4
  %cmp1 = icmp slt i32 %1, 30
  br label %land.end

land.end:                                         ; preds = %land.rhs, %entry
  %2 = phi i1 [ false, %entry ], [ %cmp1, %land.rhs ]
  ret i1 %2
}

; Function Attrs: mustprogress nounwind uwtable
define linkonce_odr dso_local noundef zeroext i1 @_ZN17btBroadphaseProxy8isConvexEi(i32 noundef %proxyType) #1 comdat align 2 {
entry:
  %proxyType.addr = alloca i32, align 4
  store i32 %proxyType, ptr %proxyType.addr, align 4
  %0 = load i32, ptr %proxyType.addr, align 4
  %cmp = icmp slt i32 %0, 20
  ret i1 %cmp
}

; Function Attrs: mustprogress uwtable
define dso_local noundef ptr @_ZN41btSoftBodyRigidBodyCollisionConfiguration31getCollisionAlgorithmCreateFuncEii(ptr noundef nonnull align 8 dereferenceable(216) %this, i32 noundef %proxyType0, i32 noundef %proxyType1) unnamed_addr #2 align 2 {
entry:
  %retval = alloca ptr, align 8
  %this.addr = alloca ptr, align 8
  %proxyType0.addr = alloca i32, align 4
  %proxyType1.addr = alloca i32, align 4
  store ptr %this, ptr %this.addr, align 8
  store i32 %proxyType0, ptr %proxyType0.addr, align 4
  store i32 %proxyType1, ptr %proxyType1.addr, align 4
  %this1 = load ptr, ptr %this.addr, align 8
  %0 = load i32, ptr %proxyType0.addr, align 4
  %cmp = icmp eq i32 %0, 32
  br i1 %cmp, label %land.lhs.true, label %if.end

land.lhs.true:                                    ; preds = %entry
  %1 = load i32, ptr %proxyType1.addr, align 4
  %cmp2 = icmp eq i32 %1, 32
  br i1 %cmp2, label %if.then, label %if.end

if.then:                                          ; preds = %land.lhs.true
  %m_softSoftCreateFunc = getelementptr inbounds %class.btSoftBodyRigidBodyCollisionConfiguration, ptr %this1, i32 0, i32 1
  %2 = load ptr, ptr %m_softSoftCreateFunc, align 8
  store ptr %2, ptr %retval, align 8
  br label %return

if.end:                                           ; preds = %land.lhs.true, %entry
  %3 = load i32, ptr %proxyType0.addr, align 4
  %cmp3 = icmp eq i32 %3, 32
  br i1 %cmp3, label %land.lhs.true4, label %if.end6

land.lhs.true4:                                   ; preds = %if.end
  %4 = load i32, ptr %proxyType1.addr, align 4
  %call = call noundef zeroext i1 @_ZN17btBroadphaseProxy8isConvexEi(i32 noundef %4)
  br i1 %call, label %if.then5, label %if.end6

if.then5:                                         ; preds = %land.lhs.true4
  %m_softRigidConvexCreateFunc = getelementptr inbounds %class.btSoftBodyRigidBodyCollisionConfiguration, ptr %this1, i32 0, i32 2
  %5 = load ptr, ptr %m_softRigidConvexCreateFunc, align 8
  store ptr %5, ptr %retval, align 8
  br label %return

if.end6:                                          ; preds = %land.lhs.true4, %if.end
  %6 = load i32, ptr %proxyType0.addr, align 4
  %call7 = call noundef zeroext i1 @_ZN17btBroadphaseProxy8isConvexEi(i32 noundef %6)
  br i1 %call7, label %land.lhs.true8, label %if.end11

land.lhs.true8:                                   ; preds = %if.end6
  %7 = load i32, ptr %proxyType1.addr, align 4
  %cmp9 = icmp eq i32 %7, 32
  br i1 %cmp9, label %if.then10, label %if.end11

if.then10:                                        ; preds = %land.lhs.true8
  %m_swappedSoftRigidConvexCreateFunc = getelementptr inbounds %class.btSoftBodyRigidBodyCollisionConfiguration, ptr %this1, i32 0, i32 3
  %8 = load ptr, ptr %m_swappedSoftRigidConvexCreateFunc, align 8
  store ptr %8, ptr %retval, align 8
  br label %return

if.end11:                                         ; preds = %land.lhs.true8, %if.end6
  %9 = load i32, ptr %proxyType0.addr, align 4
  %cmp12 = icmp eq i32 %9, 32
  br i1 %cmp12, label %land.lhs.true13, label %if.end16

land.lhs.true13:                                  ; preds = %if.end11
  %10 = load i32, ptr %proxyType1.addr, align 4
  %call14 = call noundef zeroext i1 @_ZN17btBroadphaseProxy9isConcaveEi(i32 noundef %10)
  br i1 %call14, label %if.then15, label %if.end16

if.then15:                                        ; preds = %land.lhs.true13
  %m_softRigidConcaveCreateFunc = getelementptr inbounds %class.btSoftBodyRigidBodyCollisionConfiguration, ptr %this1, i32 0, i32 4
  %11 = load ptr, ptr %m_softRigidConcaveCreateFunc, align 8
  store ptr %11, ptr %retval, align 8
  br label %return

if.end16:                                         ; preds = %land.lhs.true13, %if.end11
  %12 = load i32, ptr %proxyType0.addr, align 4
  %call17 = call noundef zeroext i1 @_ZN17btBroadphaseProxy9isConcaveEi(i32 noundef %12)
  br i1 %call17, label %land.lhs.true18, label %if.end21

land.lhs.true18:                                  ; preds = %if.end16
  %13 = load i32, ptr %proxyType1.addr, align 4
  %cmp19 = icmp eq i32 %13, 32
  br i1 %cmp19, label %if.then20, label %if.end21

if.then20:                                        ; preds = %land.lhs.true18
  %m_swappedSoftRigidConcaveCreateFunc = getelementptr inbounds %class.btSoftBodyRigidBodyCollisionConfiguration, ptr %this1, i32 0, i32 5
  %14 = load ptr, ptr %m_swappedSoftRigidConcaveCreateFunc, align 8
  store ptr %14, ptr %retval, align 8
  br label %return

if.end21:                                         ; preds = %land.lhs.true18, %if.end16
  %15 = load i32, ptr %proxyType0.addr, align 4
  %16 = load i32, ptr %proxyType1.addr, align 4
  %call22 = call noundef ptr @_ZN31btDefaultCollisionConfiguration31getCollisionAlgorithmCreateFuncEii(ptr noundef nonnull align 8 dereferenceable(176) %this1, i32 noundef %15, i32 noundef %16)
  store ptr %call22, ptr %retval, align 8
  br label %return

return:                                           ; preds = %if.end21, %if.then20, %if.then15, %if.then10, %if.then5, %if.then
  %17 = load ptr, ptr %retval, align 8
  ret ptr %17
}