; Function Attrs: mustprogress uwtable
define dso_local noundef ptr @_ZN41btSoftBodyRigidBodyCollisionConfiguration31getCollisionAlgorithmCreateFuncEii(ptr noundef nonnull align 8 dereferenceable(216) %this, i32 noundef %proxyType0, i32 noundef %proxyType1) unnamed_addr #0 align 2 {
entry:
  %cmp = icmp eq i32 %proxyType0, 32
  %cmp2 = icmp eq i32 %proxyType1, 32
  %or.cond = and i1 %cmp, %cmp2
  br i1 %or.cond, label %if.then, label %if.end

if.then:                                          ; preds = %entry
  %m_softSoftCreateFunc = getelementptr inbounds i8, ptr %this, i64 176
  %0 = load ptr, ptr %m_softSoftCreateFunc, align 8
  br label %return

if.end:                                           ; preds = %entry
  br i1 %cmp, label %land.lhs.true4, label %if.end6

land.lhs.true4:                                   ; preds = %if.end
  %cmp.i18 = icmp slt i32 %proxyType1, 20
  br i1 %cmp.i18, label %if.then5, label %land.lhs.true13

if.then5:                                         ; preds = %land.lhs.true4
  %m_softRigidConvexCreateFunc = getelementptr inbounds i8, ptr %this, i64 184
  %1 = load ptr, ptr %m_softRigidConvexCreateFunc, align 8
  br label %return

if.end6:                                          ; preds = %if.end
  %cmp.i = icmp slt i32 %proxyType0, 20
  %or.cond1 = and i1 %cmp.i, %cmp2
  br i1 %or.cond1, label %if.then10, label %if.end16

if.then10:                                        ; preds = %if.end6
  %m_swappedSoftRigidConvexCreateFunc = getelementptr inbounds i8, ptr %this, i64 192
  %2 = load ptr, ptr %m_swappedSoftRigidConvexCreateFunc, align 8
  br label %return

land.lhs.true13:                                  ; preds = %land.lhs.true4
  %3 = add nsw i32 %proxyType1, -21
  %4 = icmp ult i32 %3, 9
  br i1 %4, label %if.then15, label %if.end21

if.then15:                                        ; preds = %land.lhs.true13
  %m_softRigidConcaveCreateFunc = getelementptr inbounds i8, ptr %this, i64 200
  %5 = load ptr, ptr %m_softRigidConcaveCreateFunc, align 8
  br label %return

if.end16:                                         ; preds = %if.end6
  %6 = add i32 %proxyType0, -21
  %7 = icmp ult i32 %6, 9
  %or.cond2 = and i1 %7, %cmp2
  br i1 %or.cond2, label %if.then20, label %if.end21

if.then20:                                        ; preds = %if.end16
  %m_swappedSoftRigidConcaveCreateFunc = getelementptr inbounds i8, ptr %this, i64 208
  %8 = load ptr, ptr %m_swappedSoftRigidConcaveCreateFunc, align 8
  br label %return

if.end21:                                         ; preds = %land.lhs.true13, %if.end16
  %call22 = tail call noundef ptr @_ZN31btDefaultCollisionConfiguration31getCollisionAlgorithmCreateFuncEii(ptr noundef nonnull align 8 dereferenceable(176) %this, i32 noundef %proxyType0, i32 noundef %proxyType1)
  br label %return

return:                                           ; preds = %if.end21, %if.then20, %if.then15, %if.then10, %if.then5, %if.then
  %retval.0 = phi ptr [ %0, %if.then ], [ %1, %if.then5 ], [ %2, %if.then10 ], [ %5, %if.then15 ], [ %8, %if.then20 ], [ %call22, %if.end21 ]
  ret ptr %retval.0
}